; Function Attrs: nounwind sspstrong uwtable
define internal noundef i64 @io_buffer_resize(i64 noundef returned %0, i64 noundef %1) #0 {
  %3 = tail call i32 @rb_int_negative_p(i64 noundef %1) #25
  %.not.i = icmp eq i32 %3, 0
  br i1 %.not.i, label %6, label %4

4:                                                ; preds = %2
  %5 = load i64, ptr @rb_eArgError, align 8, !tbaa !22
  tail call void (i64, ptr, ...) @rb_raise(i64 noundef %5, ptr noundef nonnull @.str.115) #26
  unreachable

6:                                                ; preds = %2
  %7 = and i64 %1, 1
  %.not.i.i = icmp eq i64 %7, 0
  br i1 %.not.i.i, label %10, label %8

8:                                                ; preds = %6
  %9 = ashr i64 %1, 1
  br label %io_buffer_extract_size.exit

10:                                               ; preds = %6
  %11 = tail call i64 @rb_num2ull(i64 noundef %1) #25
  br label %io_buffer_extract_size.exit

io_buffer_extract_size.exit:                      ; preds = %8, %10
  %.0.i.i = phi i64 [ %9, %8 ], [ %11, %10 ]
  tail call void @rb_io_buffer_resize(i64 noundef %0, i64 noundef %.0.i.i)
  ret i64 %0
}